target datalayout = "e-m:e-p270:32:32-p271:32:32-p272:64:64-i64:64-i128:128-f80:128-n8:16:32:64-S128"
target triple = "x86_64-pc-linux-gnu"

; Function Attrs: nounwind uwtable
define dso_local i32 @encode_utf8(ptr noundef %0, i32 noundef %1) #0 {
  %3 = alloca i32, align 4
  %4 = alloca ptr, align 8
  %5 = alloca i32, align 4
  store ptr %0, ptr %4, align 8, !tbaa !7
  store i32 %1, ptr %5, align 4, !tbaa !12
  %6 = load i32, ptr %5, align 4, !tbaa !12
  %7 = icmp ule i32 %6, 127
  br i1 %7, label %8, label %13

8:                                                ; preds = %2
  %9 = load i32, ptr %5, align 4, !tbaa !12
  %10 = trunc i32 %9 to i8
  %11 = load ptr, ptr %4, align 8, !tbaa !7
  %12 = getelementptr inbounds i8, ptr %11, i64 0
  store i8 %10, ptr %12, align 1, !tbaa !14
  store i32 1, ptr %3, align 4
  br label %79

13:                                               ; preds = %2
  %14 = load i32, ptr %5, align 4, !tbaa !12
  %15 = icmp ule i32 %14, 2047
  br i1 %15, label %16, label %29

16:                                               ; preds = %13
  %17 = load i32, ptr %5, align 4, !tbaa !12
  %18 = lshr i32 %17, 6
  %19 = or i32 192, %18
  %20 = trunc i32 %19 to i8
  %21 = load ptr, ptr %4, align 8, !tbaa !7
  %22 = getelementptr inbounds i8, ptr %21, i64 0
  store i8 %20, ptr %22, align 1, !tbaa !14
  %23 = load i32, ptr %5, align 4, !tbaa !12
  %24 = and i32 %23, 63
  %25 = or i32 128, %24
  %26 = trunc i32 %25 to i8
  %27 = load ptr, ptr %4, align 8, !tbaa !7
  %28 = getelementptr inbounds i8, ptr %27, i64 1
  store i8 %26, ptr %28, align 1, !tbaa !14
  store i32 2, ptr %3, align 4
  br label %79

29:                                               ; preds = %13
  %30 = load i32, ptr %5, align 4, !tbaa !12
  %31 = icmp ule i32 %30, 65535
  br i1 %31, label %32, label %52

32:                                               ; preds = %29
  %33 = load i32, ptr %5, align 4, !tbaa !12
  %34 = lshr i32 %33, 12
  %35 = or i32 224, %34
  %36 = trunc i32 %35 to i8
  %37 = load ptr, ptr %4, align 8, !tbaa !7
  %38 = getelementptr inbounds i8, ptr %37, i64 0
  store i8 %36, ptr %38, align 1, !tbaa !14
  %39 = load i32, ptr %5, align 4, !tbaa !12
  %40 = lshr i32 %39, 6
  %41 = and i32 %40, 63
  %42 = or i32 128, %41
  %43 = trunc i32 %42 to i8
  %44 = load ptr, ptr %4, align 8, !tbaa !7
  %45 = getelementptr inbounds i8, ptr %44, i64 1
  store i8 %43, ptr %45, align 1, !tbaa !14
  %46 = load i32, ptr %5, align 4, !tbaa !12
  %47 = and i32 %46, 63
  %48 = or i32 128, %47
  %49 = trunc i32 %48 to i8
  %50 = load ptr, ptr %4, align 8, !tbaa !7
  %51 = getelementptr inbounds i8, ptr %50, i64 2
  store i8 %49, ptr %51, align 1, !tbaa !14
  store i32 3, ptr %3, align 4
  br label %79

52:                                               ; preds = %29
  %53 = load i32, ptr %5, align 4, !tbaa !12
  %54 = lshr i32 %53, 18
  %55 = or i32 240, %54
  %56 = trunc i32 %55 to i8
  %57 = load ptr, ptr %4, align 8, !tbaa !7
  %58 = getelementptr inbounds i8, ptr %57, i64 0
  store i8 %56, ptr %58, align 1, !tbaa !14
  %59 = load i32, ptr %5, align 4, !tbaa !12
  %60 = lshr i32 %59, 12
  %61 = and i32 %60, 63
  %62 = or i32 128, %61
  %63 = trunc i32 %62 to i8
  %64 = load ptr, ptr %4, align 8, !tbaa !7
  %65 = getelementptr inbounds i8, ptr %64, i64 1
  store i8 %63, ptr %65, align 1, !tbaa !14
  %66 = load i32, ptr %5, align 4, !tbaa !12
  %67 = lshr i32 %66, 6
  %68 = and i32 %67, 63
  %69 = or i32 128, %68
  %70 = trunc i32 %69 to i8
  %71 = load ptr, ptr %4, align 8, !tbaa !7
  %72 = getelementptr inbounds i8, ptr %71, i64 2
  store i8 %70, ptr %72, align 1, !tbaa !14
  %73 = load i32, ptr %5, align 4, !tbaa !12
  %74 = and i32 %73, 63
  %75 = or i32 128, %74
  %76 = trunc i32 %75 to i8
  %77 = load ptr, ptr %4, align 8, !tbaa !7
  %78 = getelementptr inbounds i8, ptr %77, i64 3
  store i8 %76, ptr %78, align 1, !tbaa !14
  store i32 4, ptr %3, align 4
  br label %79

79:                                               ; preds = %52, %32, %16, %8
  %80 = load i32, ptr %3, align 4
  ret i32 %80
}