; Function Attrs: mustprogress nofree norecurse nosync nounwind willreturn memory(argmem: write) uwtable
define dso_local range(i32 1, 5) i32 @encode_utf8(ptr noundef writeonly captures(none) initializes((0, 1)) %0, i32 noundef %1) local_unnamed_addr #0 {
  %3 = icmp ult i32 %1, 128
  br i1 %3, label %4, label %6

4:                                                ; preds = %2
  %5 = trunc nuw nsw i32 %1 to i8
  store i8 %5, ptr %0, align 1, !tbaa !7
  br label %48

6:                                                ; preds = %2
  %7 = icmp ult i32 %1, 2048
  br i1 %7, label %8, label %16

8:                                                ; preds = %6
  %9 = lshr i32 %1, 6
  %10 = trunc nuw i32 %9 to i8
  %11 = or disjoint i8 %10, -64
  store i8 %11, ptr %0, align 1, !tbaa !7
  %12 = trunc i32 %1 to i8
  %13 = and i8 %12, 63
  %14 = or disjoint i8 %13, -128
  %15 = getelementptr inbounds nuw i8, ptr %0, i64 1
  store i8 %14, ptr %15, align 1, !tbaa !7
  br label %48

16:                                               ; preds = %6
  %17 = icmp ult i32 %1, 65536
  %18 = getelementptr inbounds nuw i8, ptr %0, i64 1
  br i1 %17, label %19, label %31

19:                                               ; preds = %16
  %20 = lshr i32 %1, 12
  %21 = trunc nuw i32 %20 to i8
  %22 = or disjoint i8 %21, -32
  store i8 %22, ptr %0, align 1, !tbaa !7
  %23 = lshr i32 %1, 6
  %24 = trunc i32 %23 to i8
  %25 = and i8 %24, 63
  %26 = or disjoint i8 %25, -128
  store i8 %26, ptr %18, align 1, !tbaa !7
  %27 = trunc i32 %1 to i8
  %28 = and i8 %27, 63
  %29 = or disjoint i8 %28, -128
  %30 = getelementptr inbounds nuw i8, ptr %0, i64 2
  store i8 %29, ptr %30, align 1, !tbaa !7
  br label %48

31:                                               ; preds = %16
  %32 = lshr i32 %1, 18
  %33 = trunc i32 %32 to i8
  %34 = or i8 %33, -16
  store i8 %34, ptr %0, align 1, !tbaa !7
  %35 = lshr i32 %1, 12
  %36 = trunc i32 %35 to i8
  %37 = and i8 %36, 63
  %38 = or disjoint i8 %37, -128
  store i8 %38, ptr %18, align 1, !tbaa !7
  %39 = lshr i32 %1, 6
  %40 = trunc i32 %39 to i8
  %41 = and i8 %40, 63
  %42 = or disjoint i8 %41, -128
  %43 = getelementptr inbounds nuw i8, ptr %0, i64 2
  store i8 %42, ptr %43, align 1, !tbaa !7
  %44 = trunc i32 %1 to i8
  %45 = and i8 %44, 63
  %46 = or disjoint i8 %45, -128
  %47 = getelementptr inbounds nuw i8, ptr %0, i64 3
  store i8 %46, ptr %47, align 1, !tbaa !7
  br label %48

48:                                               ; preds = %31, %19, %8, %4
  %.0 = phi i32 [ 1, %4 ], [ 2, %8 ], [ 3, %19 ], [ 4, %31 ]
  ret i32 %.0
}